target datalayout = "e-m:e-p270:32:32-p271:32:32-p272:64:64-i64:64-i128:128-f80:128-n8:16:32:64-S128"
target triple = "x86_64-pc-linux-gnu"

%struct.ident_t = type { i32, i32, i32, i32, ptr }
%struct.Qureg = type { i32, i32, i32, i64, i64, i32, i32, %struct.ComplexArray, %struct.ComplexArray, %struct.ComplexArray, ptr, ptr, ptr, ptr, ptr, ptr }
%struct.ComplexArray = type { ptr, ptr }

@3 = private unnamed_addr constant %struct.ident_t { i32 0, i32 2, i32 0, i32 22, ptr @0 }, align 8

; Function Attrs: nounwind uwtable
define void @densmatr_mixTwoQubitDephasing(ptr noundef byval(%struct.Qureg) align 8 %0, i32 noundef %1, i32 noundef %2, double noundef %3) #0 {
  %5 = alloca i32, align 4
  %6 = alloca i32, align 4
  %7 = alloca double, align 8
  %8 = alloca double, align 8
  %9 = alloca i64, align 8
  %10 = alloca i64, align 8
  %11 = alloca i64, align 8
  %12 = alloca i64, align 8
  %13 = alloca i64, align 8
  %14 = alloca i64, align 8
  %15 = alloca i64, align 8
  store i32 %1, ptr %5, align 4, !tbaa !8
  store i32 %2, ptr %6, align 4, !tbaa !8
  store double %3, ptr %7, align 8, !tbaa !10
  call void @llvm.lifetime.start.p0(i64 8, ptr %8) #3
  %16 = load double, ptr %7, align 8, !tbaa !10
  %17 = fsub double 1.000000e+00, %16
  store double %17, ptr %8, align 8, !tbaa !10
  call void @llvm.lifetime.start.p0(i64 8, ptr %9) #3
  %18 = getelementptr inbounds nuw %struct.Qureg, ptr %0, i32 0, i32 3
  %19 = load i64, ptr %18, align 8, !tbaa !12
  store i64 %19, ptr %9, align 8, !tbaa !4
  call void @llvm.lifetime.start.p0(i64 8, ptr %10) #3
  %20 = load i32, ptr %5, align 4, !tbaa !8
  %21 = zext i32 %20 to i64
  %22 = shl i64 1, %21
  store i64 %22, ptr %10, align 8, !tbaa !4
  call void @llvm.lifetime.start.p0(i64 8, ptr %11) #3
  %23 = load i32, ptr %5, align 4, !tbaa !8
  %24 = getelementptr inbounds nuw %struct.Qureg, ptr %0, i32 0, i32 1
  %25 = load i32, ptr %24, align 4, !tbaa !18
  %26 = add nsw i32 %23, %25
  %27 = zext i32 %26 to i64
  %28 = shl i64 1, %27
  store i64 %28, ptr %11, align 8, !tbaa !4
  call void @llvm.lifetime.start.p0(i64 8, ptr %12) #3
  %29 = load i32, ptr %6, align 4, !tbaa !8
  %30 = zext i32 %29 to i64
  %31 = shl i64 1, %30
  store i64 %31, ptr %12, align 8, !tbaa !4
  call void @llvm.lifetime.start.p0(i64 8, ptr %13) #3
  %32 = load i32, ptr %6, align 4, !tbaa !8
  %33 = getelementptr inbounds nuw %struct.Qureg, ptr %0, i32 0, i32 1
  %34 = load i32, ptr %33, align 4, !tbaa !18
  %35 = add nsw i32 %32, %34
  %36 = zext i32 %35 to i64
  %37 = shl i64 1, %36
  store i64 %37, ptr %13, align 8, !tbaa !4
  call void @llvm.lifetime.start.p0(i64 8, ptr %14) #3
  %38 = load i64, ptr %10, align 8, !tbaa !4
  %39 = load i64, ptr %11, align 8, !tbaa !4
  %40 = or i64 %38, %39
  store i64 %40, ptr %14, align 8, !tbaa !4
  call void @llvm.lifetime.start.p0(i64 8, ptr %15) #3
  %41 = load i64, ptr %12, align 8, !tbaa !4
  %42 = load i64, ptr %13, align 8, !tbaa !4
  %43 = or i64 %41, %42
  store i64 %43, ptr %15, align 8, !tbaa !4
  call void (ptr, i32, ptr, ...) @__kmpc_fork_call(ptr @3, i32 9, ptr @densmatr_mixTwoQubitDephasing.omp_outlined, ptr %9, ptr %0, ptr %14, ptr %15, ptr %10, ptr %11, ptr %12, ptr %13, ptr %8)
  call void @llvm.lifetime.end.p0(i64 8, ptr %15) #3
  call void @llvm.lifetime.end.p0(i64 8, ptr %14) #3
  call void @llvm.lifetime.end.p0(i64 8, ptr %13) #3
  call void @llvm.lifetime.end.p0(i64 8, ptr %12) #3
  call void @llvm.lifetime.end.p0(i64 8, ptr %11) #3
  call void @llvm.lifetime.end.p0(i64 8, ptr %10) #3
  call void @llvm.lifetime.end.p0(i64 8, ptr %9) #3
  call void @llvm.lifetime.end.p0(i64 8, ptr %8) #3
  ret void
}