; Function Attrs: nounwind uwtable
define void @densmatr_mixTwoQubitDephasing(ptr noundef byval(%struct.Qureg) align 8 %0, i32 noundef %1, i32 noundef %2, double noundef %3) local_unnamed_addr #1 {
  %5 = alloca double, align 8
  %6 = alloca i64, align 8
  %7 = alloca i64, align 8
  %8 = alloca i64, align 8
  %9 = alloca i64, align 8
  %10 = alloca i64, align 8
  %11 = alloca i64, align 8
  %12 = alloca i64, align 8
  call void @llvm.lifetime.start.p0(i64 8, ptr nonnull %5) #4
  %13 = fsub double 1.000000e+00, %3
  store double %13, ptr %5, align 8, !tbaa !4
  call void @llvm.lifetime.start.p0(i64 8, ptr nonnull %6) #4
  %14 = getelementptr inbounds nuw i8, ptr %0, i64 16
  %15 = load i64, ptr %14, align 8, !tbaa !8
  store i64 %15, ptr %6, align 8, !tbaa !16
  call void @llvm.lifetime.start.p0(i64 8, ptr nonnull %7) #4
  %16 = zext nneg i32 %1 to i64
  %17 = shl nuw i64 1, %16
  store i64 %17, ptr %7, align 8, !tbaa !16
  call void @llvm.lifetime.start.p0(i64 8, ptr nonnull %8) #4
  %18 = getelementptr inbounds nuw i8, ptr %0, i64 4
  %19 = load i32, ptr %18, align 4, !tbaa !17
  %20 = add nsw i32 %19, %1
  %21 = zext nneg i32 %20 to i64
  %22 = shl nuw i64 1, %21
  store i64 %22, ptr %8, align 8, !tbaa !16
  call void @llvm.lifetime.start.p0(i64 8, ptr nonnull %9) #4
  %23 = zext nneg i32 %2 to i64
  %24 = shl nuw i64 1, %23
  store i64 %24, ptr %9, align 8, !tbaa !16
  call void @llvm.lifetime.start.p0(i64 8, ptr nonnull %10) #4
  %25 = add nsw i32 %19, %2
  %26 = zext nneg i32 %25 to i64
  %27 = shl nuw i64 1, %26
  store i64 %27, ptr %10, align 8, !tbaa !16
  call void @llvm.lifetime.start.p0(i64 8, ptr nonnull %11) #4
  %28 = or i64 %22, %17
  store i64 %28, ptr %11, align 8, !tbaa !16
  call void @llvm.lifetime.start.p0(i64 8, ptr nonnull %12) #4
  %29 = or i64 %27, %24
  store i64 %29, ptr %12, align 8, !tbaa !16
  call void (ptr, i32, ptr, ...) @__kmpc_fork_call(ptr nonnull @3, i32 9, ptr nonnull @densmatr_mixTwoQubitDephasing.omp_outlined, ptr nonnull %6, ptr nonnull %0, ptr nonnull %11, ptr nonnull %12, ptr nonnull %7, ptr nonnull %8, ptr nonnull %9, ptr nonnull %10, ptr nonnull %5)
  call void @llvm.lifetime.end.p0(i64 8, ptr nonnull %12) #4
  call void @llvm.lifetime.end.p0(i64 8, ptr nonnull %11) #4
  call void @llvm.lifetime.end.p0(i64 8, ptr nonnull %10) #4
  call void @llvm.lifetime.end.p0(i64 8, ptr nonnull %9) #4
  call void @llvm.lifetime.end.p0(i64 8, ptr nonnull %8) #4
  call void @llvm.lifetime.end.p0(i64 8, ptr nonnull %7) #4
  call void @llvm.lifetime.end.p0(i64 8, ptr nonnull %6) #4
  call void @llvm.lifetime.end.p0(i64 8, ptr nonnull %5) #4
  ret void
}